target datalayout = "e-m:e-p270:32:32-p271:32:32-p272:64:64-i64:64-i128:128-f80:128-n8:16:32:64-S128"
target triple = "x86_64-pc-linux-gnu"

%struct._zend_refcounted_h = type { i32, %union.anon.4 }
%union.anon.4 = type { i32 }
%struct._zend_string = type { %struct._zend_refcounted_h, i64, i64, [1 x i8] }

@.str.6 = private unnamed_addr constant [8 x i8] c"extract\00", align 1
@.str.7 = private unnamed_addr constant [8 x i8] c"compact\00", align 1
@.str.8 = private unnamed_addr constant [17 x i8] c"get_defined_vars\00", align 1
@.str.9 = private unnamed_addr constant [12 x i8] c"db2_execute\00", align 1
@.str.10 = private unnamed_addr constant [14 x i8] c"func_num_args\00", align 1
@.str.11 = private unnamed_addr constant [13 x i8] c"func_get_arg\00", align 1
@.str.12 = private unnamed_addr constant [14 x i8] c"func_get_args\00", align 1

; Function Attrs: alwaysinline nounwind uwtable
define internal zeroext i1 @zend_string_equals_cstr(ptr noundef %0, ptr noundef %1, i64 noundef %2) #1 {
  %4 = alloca ptr, align 8
  %5 = alloca ptr, align 8
  %6 = alloca i64, align 8
  store ptr %0, ptr %4, align 8, !tbaa !31
  store ptr %1, ptr %5, align 8, !tbaa !25
  store i64 %2, ptr %6, align 8, !tbaa !20
  %7 = load ptr, ptr %4, align 8, !tbaa !31
  %8 = getelementptr inbounds nuw %struct._zend_string, ptr %7, i32 0, i32 2
  %9 = load i64, ptr %8, align 8, !tbaa !39
  %10 = load i64, ptr %6, align 8, !tbaa !20
  %11 = icmp eq i64 %9, %10
  br i1 %11, label %12, label %21

12:                                               ; preds = %3
  %13 = load ptr, ptr %4, align 8, !tbaa !31
  %14 = getelementptr inbounds nuw %struct._zend_string, ptr %13, i32 0, i32 3
  %15 = getelementptr inbounds [1 x i8], ptr %14, i64 0, i64 0
  %16 = load ptr, ptr %5, align 8, !tbaa !25
  %17 = load i64, ptr %6, align 8, !tbaa !20
  %18 = call i32 @memcmp(ptr noundef %15, ptr noundef %16, i64 noundef %17) #15
  %19 = icmp ne i32 %18, 0
  %20 = xor i1 %19, true
  br label %21

21:                                               ; preds = %12, %3
  %22 = phi i1 [ false, %3 ], [ %20, %12 ]
  ret i1 %22
}

; Function Attrs: nounwind uwtable
define hidden i32 @zend_optimizer_classify_function(ptr noundef %0, i32 noundef %1) #0 {
  %3 = alloca i32, align 4
  %4 = alloca ptr, align 8
  %5 = alloca i32, align 4
  store ptr %0, ptr %4, align 8, !tbaa !31
  store i32 %1, ptr %5, align 4, !tbaa !29
  %6 = load ptr, ptr %4, align 8, !tbaa !31
  %7 = call zeroext i1 @zend_string_equals_cstr(ptr noundef %6, ptr noundef @.str.6, i64 noundef 7)
  br i1 %7, label %8, label %9

8:                                                ; preds = %2
  store i32 1, ptr %3, align 4
  br label %34

9:                                                ; preds = %2
  %10 = load ptr, ptr %4, align 8, !tbaa !31
  %11 = call zeroext i1 @zend_string_equals_cstr(ptr noundef %10, ptr noundef @.str.7, i64 noundef 7)
  br i1 %11, label %12, label %13

12:                                               ; preds = %9
  store i32 1, ptr %3, align 4
  br label %34

13:                                               ; preds = %9
  %14 = load ptr, ptr %4, align 8, !tbaa !31
  %15 = call zeroext i1 @zend_string_equals_cstr(ptr noundef %14, ptr noundef @.str.8, i64 noundef 16)
  br i1 %15, label %16, label %17

16:                                               ; preds = %13
  store i32 1, ptr %3, align 4
  br label %34

17:                                               ; preds = %13
  %18 = load ptr, ptr %4, align 8, !tbaa !31
  %19 = call zeroext i1 @zend_string_equals_cstr(ptr noundef %18, ptr noundef @.str.9, i64 noundef 11)
  br i1 %19, label %20, label %21

20:                                               ; preds = %17
  store i32 1, ptr %3, align 4
  br label %34

21:                                               ; preds = %17
  %22 = load ptr, ptr %4, align 8, !tbaa !31
  %23 = call zeroext i1 @zend_string_equals_cstr(ptr noundef %22, ptr noundef @.str.10, i64 noundef 13)
  br i1 %23, label %24, label %25

24:                                               ; preds = %21
  store i32 4, ptr %3, align 4
  br label %34

25:                                               ; preds = %21
  %26 = load ptr, ptr %4, align 8, !tbaa !31
  %27 = call zeroext i1 @zend_string_equals_cstr(ptr noundef %26, ptr noundef @.str.11, i64 noundef 12)
  br i1 %27, label %28, label %29

28:                                               ; preds = %25
  store i32 4, ptr %3, align 4
  br label %34

29:                                               ; preds = %25
  %30 = load ptr, ptr %4, align 8, !tbaa !31
  %31 = call zeroext i1 @zend_string_equals_cstr(ptr noundef %30, ptr noundef @.str.12, i64 noundef 13)
  br i1 %31, label %32, label %33

32:                                               ; preds = %29
  store i32 4, ptr %3, align 4
  br label %34

33:                                               ; preds = %29
  store i32 0, ptr %3, align 4
  br label %34

34:                                               ; preds = %33, %32, %28, %24, %20, %16, %12, %8
  %35 = load i32, ptr %3, align 4
  ret i32 %35
}