; Function Attrs: mustprogress nofree nounwind willreturn memory(argmem: read) uwtable
define hidden range(i32 0, 5) i32 @zend_optimizer_classify_function(ptr noundef readonly captures(none) %0, i32 %1) local_unnamed_addr #8 {
  %3 = getelementptr inbounds nuw i8, ptr %0, i64 16
  %4 = load i64, ptr %3, align 8, !tbaa !25
  switch i64 %4, label %zend_string_equals_cstr.exit.thread [
    i64 7, label %zend_string_equals_cstr.exit24
    i64 16, label %zend_string_equals_cstr.exit18
    i64 11, label %zend_string_equals_cstr.exit15
    i64 13, label %zend_string_equals_cstr.exit12
    i64 12, label %zend_string_equals_cstr.exit9
  ]

zend_string_equals_cstr.exit24:                   ; preds = %2
  %5 = getelementptr inbounds nuw i8, ptr %0, i64 24
  %bcmp.i22 = tail call i32 @bcmp(ptr noundef nonnull dereferenceable(7) %5, ptr noundef nonnull dereferenceable(7) @.str.6, i64 7)
  %.not.i23 = icmp eq i32 %bcmp.i22, 0
  br i1 %.not.i23, label %zend_string_equals_cstr.exit.thread, label %zend_string_equals_cstr.exit21

zend_string_equals_cstr.exit21:                   ; preds = %zend_string_equals_cstr.exit24
  %bcmp.i19 = tail call i32 @bcmp(ptr noundef nonnull dereferenceable(7) %5, ptr noundef nonnull dereferenceable(7) @.str.7, i64 7)
  %.not.i20 = icmp eq i32 %bcmp.i19, 0
  br i1 %.not.i20, label %zend_string_equals_cstr.exit.thread, label %.thread29

zend_string_equals_cstr.exit18:                   ; preds = %2
  %6 = getelementptr inbounds nuw i8, ptr %0, i64 24
  %bcmp.i16 = tail call i32 @bcmp(ptr noundef nonnull dereferenceable(16) %6, ptr noundef nonnull dereferenceable(16) @.str.8, i64 16)
  %.not.i17 = icmp eq i32 %bcmp.i16, 0
  br i1 %.not.i17, label %zend_string_equals_cstr.exit.thread, label %.thread29

zend_string_equals_cstr.exit15:                   ; preds = %2
  %7 = getelementptr inbounds nuw i8, ptr %0, i64 24
  %bcmp.i13 = tail call i32 @bcmp(ptr noundef nonnull dereferenceable(11) %7, ptr noundef nonnull dereferenceable(11) @.str.9, i64 11)
  %.not.i14 = icmp eq i32 %bcmp.i13, 0
  %spec.select = zext i1 %.not.i14 to i32
  br label %zend_string_equals_cstr.exit.thread

zend_string_equals_cstr.exit12:                   ; preds = %2
  %8 = getelementptr inbounds nuw i8, ptr %0, i64 24
  %bcmp.i10 = tail call i32 @bcmp(ptr noundef nonnull dereferenceable(13) %8, ptr noundef nonnull dereferenceable(13) @.str.10, i64 13)
  %.not.i11 = icmp eq i32 %bcmp.i10, 0
  br i1 %.not.i11, label %zend_string_equals_cstr.exit.thread, label %zend_string_equals_cstr.exit

.thread29:                                        ; preds = %zend_string_equals_cstr.exit18, %zend_string_equals_cstr.exit21
  br label %zend_string_equals_cstr.exit.thread

zend_string_equals_cstr.exit9:                    ; preds = %2
  %9 = getelementptr inbounds nuw i8, ptr %0, i64 24
  %bcmp.i7 = tail call i32 @bcmp(ptr noundef nonnull dereferenceable(12) %9, ptr noundef nonnull dereferenceable(12) @.str.11, i64 12)
  %.not.i8 = icmp eq i32 %bcmp.i7, 0
  %spec.select36 = select i1 %.not.i8, i32 4, i32 0
  br label %zend_string_equals_cstr.exit.thread

zend_string_equals_cstr.exit:                     ; preds = %zend_string_equals_cstr.exit12
  %bcmp.i = tail call i32 @bcmp(ptr noundef nonnull dereferenceable(13) %8, ptr noundef nonnull dereferenceable(13) @.str.12, i64 13)
  %bcmp.i.fr = freeze i32 %bcmp.i
  %.not.i = icmp eq i32 %bcmp.i.fr, 0
  %spec.select37 = select i1 %.not.i, i32 4, i32 0
  br label %zend_string_equals_cstr.exit.thread

zend_string_equals_cstr.exit.thread:              ; preds = %.thread29, %zend_string_equals_cstr.exit, %zend_string_equals_cstr.exit9, %zend_string_equals_cstr.exit15, %2, %zend_string_equals_cstr.exit12, %zend_string_equals_cstr.exit18, %zend_string_equals_cstr.exit21, %zend_string_equals_cstr.exit24
  %.0 = phi i32 [ 1, %zend_string_equals_cstr.exit24 ], [ 1, %zend_string_equals_cstr.exit21 ], [ 1, %zend_string_equals_cstr.exit18 ], [ 4, %zend_string_equals_cstr.exit12 ], [ %spec.select, %zend_string_equals_cstr.exit15 ], [ 0, %2 ], [ 0, %.thread29 ], [ %spec.select36, %zend_string_equals_cstr.exit9 ], [ %spec.select37, %zend_string_equals_cstr.exit ]
  ret i32 %.0
}